target datalayout = "e-m:e-p270:32:32-p271:32:32-p272:64:64-i64:64-i128:128-f80:128-n8:16:32:64-S128"
target triple = "x86_64-pc-linux-gnu"

%struct.NarrowConv = type { ptr, ptr, ptr, i32, i32, [256 x i32] }
%struct.jit_State = type { %struct.GCtrace, ptr, ptr, ptr, ptr, ptr, ptr, i32, i32, i32, i8, i8, %struct.IRType1, i8, %struct.FoldState, ptr, i32, i32, i32, i32, i32, i32, i32, [1 x i32], [5 x %union.TValue], [3 x %union.TValue], ptr, i32, i32, i32, i32, ptr, ptr, i32, i32, i8, ptr, i32, i32, i16, [101 x i16], [258 x i32], [15 x i32], [16 x ptr], [64 x %struct.HotPenalty], i32, [16 x %struct.BPropEntry], i32, %struct.ScEvEntry, ptr, i32, i32, i32, ptr, i32, i32, ptr, ptr, ptr, i64, i64, %union.TValue, ptr, i32, i32 }
%struct.GCtrace = type { %struct.GCRef, i8, i8, i16, i32, i32, %struct.GCRef, ptr, i32, i32, ptr, ptr, %struct.GCRef, %struct.MRef, i32, i32, ptr, i32, i16, i16, i16, i16, i16, i16, i16, i8, i8, i8, i8 }
%struct.GCRef = type { i64 }
%struct.MRef = type { i64 }
%struct.IRType1 = type { i8 }
%struct.FoldState = type { %union.IRIns, [2 x %union.IRIns], [2 x %union.IRIns] }
%union.IRIns = type { %struct.GCRef }
%struct.HotPenalty = type { %struct.MRef, i16, i16 }
%struct.BPropEntry = type { i16, i16, i32 }
%struct.ScEvEntry = type { %struct.MRef, i16, i16, i16, i16, %struct.IRType1, i8 }
%union.TValue = type { i64 }
%struct.anon.0 = type { i32, %struct.IRType1, i8, i8, i8 }
%struct.anon = type { i16, i16, i16, i16 }

; Function Attrs: nounwind uwtable
define internal ptr @narrow_bpc_get(ptr noundef %0, i16 noundef zeroext %1, i32 noundef %2) #0 {
  %4 = alloca ptr, align 8
  %5 = alloca ptr, align 8
  %6 = alloca i16, align 2
  %7 = alloca i32, align 4
  %8 = alloca i64, align 8
  %9 = alloca ptr, align 8
  %10 = alloca i32, align 4
  store ptr %0, ptr %5, align 8, !tbaa !4
  store i16 %1, ptr %6, align 2, !tbaa !44
  store i32 %2, ptr %7, align 4, !tbaa !38
  call void @llvm.lifetime.start.p0(i64 8, ptr %8) #5
  store i64 0, ptr %8, align 8, !tbaa !43
  br label %11

11:                                               ; preds = %46, %3
  %12 = load i64, ptr %8, align 8, !tbaa !43
  %13 = icmp slt i64 %12, 16
  br i1 %13, label %14, label %49

14:                                               ; preds = %11
  call void @llvm.lifetime.start.p0(i64 8, ptr %9) #5
  %15 = load ptr, ptr %5, align 8, !tbaa !4
  %16 = getelementptr inbounds nuw %struct.jit_State, ptr %15, i32 0, i32 46
  %17 = load i64, ptr %8, align 8, !tbaa !43
  %18 = getelementptr inbounds [16 x %struct.BPropEntry], ptr %16, i64 0, i64 %17
  store ptr %18, ptr %9, align 8, !tbaa !47
  %19 = load ptr, ptr %9, align 8, !tbaa !47
  %20 = getelementptr inbounds nuw %struct.BPropEntry, ptr %19, i32 0, i32 0
  %21 = load i16, ptr %20, align 4, !tbaa !55
  %22 = zext i16 %21 to i32
  %23 = load i16, ptr %6, align 2, !tbaa !44
  %24 = zext i16 %23 to i32
  %25 = icmp eq i32 %22, %24
  br i1 %25, label %26, label %42

26:                                               ; preds = %14
  %27 = load ptr, ptr %9, align 8, !tbaa !47
  %28 = getelementptr inbounds nuw %struct.BPropEntry, ptr %27, i32 0, i32 2
  %29 = load i32, ptr %28, align 4, !tbaa !56
  %30 = load i32, ptr %7, align 4, !tbaa !38
  %31 = icmp uge i32 %29, %30
  br i1 %31, label %32, label %42

32:                                               ; preds = %26
  %33 = load ptr, ptr %9, align 8, !tbaa !47
  %34 = getelementptr inbounds nuw %struct.BPropEntry, ptr %33, i32 0, i32 2
  %35 = load i32, ptr %34, align 4, !tbaa !56
  %36 = load i32, ptr %7, align 4, !tbaa !38
  %37 = xor i32 %35, %36
  %38 = and i32 %37, 4095
  %39 = icmp eq i32 %38, 0
  br i1 %39, label %40, label %42

40:                                               ; preds = %32
  %41 = load ptr, ptr %9, align 8, !tbaa !47
  store ptr %41, ptr %4, align 8
  store i32 1, ptr %10, align 4
  br label %43

42:                                               ; preds = %32, %26, %14
  store i32 0, ptr %10, align 4
  br label %43

43:                                               ; preds = %42, %40
  call void @llvm.lifetime.end.p0(i64 8, ptr %9) #5
  %44 = load i32, ptr %10, align 4
  switch i32 %44, label %50 [
    i32 0, label %45
  ]

45:                                               ; preds = %43
  br label %46

46:                                               ; preds = %45
  %47 = load i64, ptr %8, align 8, !tbaa !43
  %48 = add nsw i64 %47, 1
  store i64 %48, ptr %8, align 8, !tbaa !43
  br label %11, !llvm.loop !57

49:                                               ; preds = %11
  store ptr null, ptr %4, align 8
  store i32 1, ptr %10, align 4
  br label %50

50:                                               ; preds = %49, %43
  call void @llvm.lifetime.end.p0(i64 8, ptr %8) #5
  %51 = load ptr, ptr %4, align 8
  ret ptr %51
}

; Function Attrs: nounwind uwtable
define internal void @narrow_stripov_backprop(ptr noundef %0, i32 noundef %1, i32 noundef %2) #0 {
  %4 = alloca ptr, align 8
  %5 = alloca i32, align 4
  %6 = alloca i32, align 4
  %7 = alloca ptr, align 8
  %8 = alloca ptr, align 8
  %9 = alloca ptr, align 8
  %10 = alloca ptr, align 8
  %11 = alloca i32, align 4
  store ptr %0, ptr %4, align 8, !tbaa !36
  store i32 %1, ptr %5, align 4, !tbaa !38
  store i32 %2, ptr %6, align 4, !tbaa !38
  call void @llvm.lifetime.start.p0(i64 8, ptr %7) #5
  %12 = load ptr, ptr %4, align 8, !tbaa !36
  %13 = getelementptr inbounds nuw %struct.NarrowConv, ptr %12, i32 0, i32 0
  %14 = load ptr, ptr %13, align 8, !tbaa !29
  store ptr %14, ptr %7, align 8, !tbaa !4
  call void @llvm.lifetime.start.p0(i64 8, ptr %8) #5
  %15 = load ptr, ptr %7, align 8, !tbaa !4
  %16 = getelementptr inbounds nuw %struct.jit_State, ptr %15, i32 0, i32 0
  %17 = getelementptr inbounds nuw %struct.GCtrace, ptr %16, i32 0, i32 7
  %18 = load ptr, ptr %17, align 8, !tbaa !39
  %19 = load i32, ptr %5, align 4, !tbaa !38
  %20 = zext i32 %19 to i64
  %21 = getelementptr inbounds nuw %union.IRIns, ptr %18, i64 %20
  store ptr %21, ptr %8, align 8, !tbaa !40
  %22 = load ptr, ptr %8, align 8, !tbaa !40
  %23 = getelementptr inbounds nuw %struct.anon.0, ptr %22, i32 0, i32 2
  %24 = load i8, ptr %23, align 1, !tbaa !33
  %25 = zext i8 %24 to i32
  %26 = icmp eq i32 %25, 53
  br i1 %26, label %45, label %27

27:                                               ; preds = %3
  %28 = load ptr, ptr %8, align 8, !tbaa !40
  %29 = getelementptr inbounds nuw %struct.anon.0, ptr %28, i32 0, i32 2
  %30 = load i8, ptr %29, align 1, !tbaa !33
  %31 = zext i8 %30 to i32
  %32 = icmp eq i32 %31, 54
  br i1 %32, label %45, label %33

33:                                               ; preds = %27
  %34 = load ptr, ptr %8, align 8, !tbaa !40
  %35 = getelementptr inbounds nuw %struct.anon.0, ptr %34, i32 0, i32 2
  %36 = load i8, ptr %35, align 1, !tbaa !33
  %37 = zext i8 %36 to i32
  %38 = icmp eq i32 %37, 55
  br i1 %38, label %39, label %131

39:                                               ; preds = %33
  %40 = load ptr, ptr %4, align 8, !tbaa !36
  %41 = getelementptr inbounds nuw %struct.NarrowConv, ptr %40, i32 0, i32 3
  %42 = load i32, ptr %41, align 8, !tbaa !35
  %43 = and i32 %42, 61440
  %44 = icmp eq i32 %43, 4096
  br i1 %44, label %45, label %131

45:                                               ; preds = %39, %27, %3
  call void @llvm.lifetime.start.p0(i64 8, ptr %9) #5
  %46 = load ptr, ptr %4, align 8, !tbaa !36
  %47 = getelementptr inbounds nuw %struct.NarrowConv, ptr %46, i32 0, i32 0
  %48 = load ptr, ptr %47, align 8, !tbaa !29
  %49 = load i32, ptr %5, align 4, !tbaa !38
  %50 = trunc i32 %49 to i16
  %51 = call ptr @narrow_bpc_get(ptr noundef %48, i16 noundef zeroext %50, i32 noundef 0)
  store ptr %51, ptr %9, align 8, !tbaa !47
  %52 = load ptr, ptr %9, align 8, !tbaa !47
  %53 = icmp ne ptr %52, null
  br i1 %53, label %54, label %59

54:                                               ; preds = %45
  %55 = load ptr, ptr %9, align 8, !tbaa !47
  %56 = getelementptr inbounds nuw %struct.BPropEntry, ptr %55, i32 0, i32 1
  %57 = load i16, ptr %56, align 2, !tbaa !49
  %58 = zext i16 %57 to i32
  store i32 %58, ptr %5, align 4, !tbaa !38
  br label %127

59:                                               ; preds = %45
  %60 = load i32, ptr %6, align 4, !tbaa !38
  %61 = add nsw i32 %60, 1
  store i32 %61, ptr %6, align 4, !tbaa !38
  %62 = icmp slt i32 %61, 100
  br i1 %62, label %63, label %126

63:                                               ; preds = %59
  %64 = load ptr, ptr %4, align 8, !tbaa !36
  %65 = getelementptr inbounds nuw %struct.NarrowConv, ptr %64, i32 0, i32 1
  %66 = load ptr, ptr %65, align 8, !tbaa !31
  %67 = load ptr, ptr %4, align 8, !tbaa !36
  %68 = getelementptr inbounds nuw %struct.NarrowConv, ptr %67, i32 0, i32 2
  %69 = load ptr, ptr %68, align 8, !tbaa !32
  %70 = icmp ult ptr %66, %69
  br i1 %70, label %71, label %126

71:                                               ; preds = %63
  call void @llvm.lifetime.start.p0(i64 8, ptr %10) #5
  %72 = load ptr, ptr %4, align 8, !tbaa !36
  %73 = getelementptr inbounds nuw %struct.NarrowConv, ptr %72, i32 0, i32 1
  %74 = load ptr, ptr %73, align 8, !tbaa !31
  store ptr %74, ptr %10, align 8, !tbaa !51
  %75 = load ptr, ptr %4, align 8, !tbaa !36
  %76 = load ptr, ptr %8, align 8, !tbaa !40
  %77 = getelementptr inbounds nuw %struct.anon, ptr %76, i32 0, i32 0
  %78 = load i16, ptr %77, align 8, !tbaa !33
  %79 = zext i16 %78 to i32
  %80 = load i32, ptr %6, align 4, !tbaa !38
  call void @narrow_stripov_backprop(ptr noundef %75, i32 noundef %79, i32 noundef %80)
  %81 = load ptr, ptr %4, align 8, !tbaa !36
  %82 = getelementptr inbounds nuw %struct.NarrowConv, ptr %81, i32 0, i32 1
  %83 = load ptr, ptr %82, align 8, !tbaa !31
  %84 = load ptr, ptr %4, align 8, !tbaa !36
  %85 = getelementptr inbounds nuw %struct.NarrowConv, ptr %84, i32 0, i32 2
  %86 = load ptr, ptr %85, align 8, !tbaa !32
  %87 = icmp ult ptr %83, %86
  br i1 %87, label %88, label %119

88:                                               ; preds = %71
  %89 = load ptr, ptr %4, align 8, !tbaa !36
  %90 = load ptr, ptr %8, align 8, !tbaa !40
  %91 = getelementptr inbounds nuw %struct.anon, ptr %90, i32 0, i32 1
  %92 = load i16, ptr %91, align 2, !tbaa !33
  %93 = zext i16 %92 to i32
  %94 = load i32, ptr %6, align 4, !tbaa !38
  call void @narrow_stripov_backprop(ptr noundef %89, i32 noundef %93, i32 noundef %94)
  %95 = load ptr, ptr %4, align 8, !tbaa !36
  %96 = getelementptr inbounds nuw %struct.NarrowConv, ptr %95, i32 0, i32 1
  %97 = load ptr, ptr %96, align 8, !tbaa !31
  %98 = load ptr, ptr %4, align 8, !tbaa !36
  %99 = getelementptr inbounds nuw %struct.NarrowConv, ptr %98, i32 0, i32 2
  %100 = load ptr, ptr %99, align 8, !tbaa !32
  %101 = icmp ult ptr %97, %100
  br i1 %101, label %102, label %118

102:                                              ; preds = %88
  %103 = load ptr, ptr %8, align 8, !tbaa !40
  %104 = getelementptr inbounds nuw %struct.anon.0, ptr %103, i32 0, i32 2
  %105 = load i8, ptr %104, align 1, !tbaa !33
  %106 = zext i8 %105 to i32
  %107 = sub nsw i32 %106, 53
  %108 = add nsw i32 %107, 41
  %109 = shl i32 %108, 8
  %110 = or i32 %109, 19
  %111 = shl i32 %110, 16
  %112 = load i32, ptr %5, align 4, !tbaa !38
  %113 = add i32 %111, %112
  %114 = load ptr, ptr %4, align 8, !tbaa !36
  %115 = getelementptr inbounds nuw %struct.NarrowConv, ptr %114, i32 0, i32 1
  %116 = load ptr, ptr %115, align 8, !tbaa !31
  %117 = getelementptr inbounds nuw i32, ptr %116, i32 1
  store ptr %117, ptr %115, align 8, !tbaa !31
  store i32 %113, ptr %116, align 4, !tbaa !38
  store i32 1, ptr %11, align 4
  br label %123

118:                                              ; preds = %88
  br label %119

119:                                              ; preds = %118, %71
  %120 = load ptr, ptr %10, align 8, !tbaa !51
  %121 = load ptr, ptr %4, align 8, !tbaa !36
  %122 = getelementptr inbounds nuw %struct.NarrowConv, ptr %121, i32 0, i32 1
  store ptr %120, ptr %122, align 8, !tbaa !31
  store i32 0, ptr %11, align 4
  br label %123

123:                                              ; preds = %119, %102
  call void @llvm.lifetime.end.p0(i64 8, ptr %10) #5
  %124 = load i32, ptr %11, align 4
  switch i32 %124, label %128 [
    i32 0, label %125
  ]

125:                                              ; preds = %123
  br label %126

126:                                              ; preds = %125, %63, %59
  br label %127

127:                                              ; preds = %126, %54
  store i32 0, ptr %11, align 4
  br label %128

128:                                              ; preds = %127, %123
  call void @llvm.lifetime.end.p0(i64 8, ptr %9) #5
  %129 = load i32, ptr %11, align 4
  switch i32 %129, label %138 [
    i32 0, label %130
  ]

130:                                              ; preds = %128
  br label %131

131:                                              ; preds = %130, %39, %33
  %132 = load i32, ptr %5, align 4, !tbaa !38
  %133 = add i32 0, %132
  %134 = load ptr, ptr %4, align 8, !tbaa !36
  %135 = getelementptr inbounds nuw %struct.NarrowConv, ptr %134, i32 0, i32 1
  %136 = load ptr, ptr %135, align 8, !tbaa !31
  %137 = getelementptr inbounds nuw i32, ptr %136, i32 1
  store ptr %137, ptr %135, align 8, !tbaa !31
  store i32 %133, ptr %136, align 4, !tbaa !38
  store i32 0, ptr %11, align 4
  br label %138

138:                                              ; preds = %131, %128
  call void @llvm.lifetime.end.p0(i64 8, ptr %8) #5
  call void @llvm.lifetime.end.p0(i64 8, ptr %7) #5
  %139 = load i32, ptr %11, align 4
  switch i32 %139, label %141 [
    i32 0, label %140
    i32 1, label %140
  ]

140:                                              ; preds = %138, %138
  ret void

141:                                              ; preds = %138
  unreachable
}