; Function Attrs: nofree nosync nounwind memory(readwrite, inaccessiblemem: none) uwtable
define internal fastcc void @narrow_stripov_backprop(ptr noundef nonnull %0, i32 noundef range(i32 0, 65536) %1, i32 noundef %2) unnamed_addr #2 {
  %4 = load ptr, ptr %0, align 8, !tbaa !27
  %5 = getelementptr inbounds nuw i8, ptr %4, i64 32
  %6 = load ptr, ptr %5, align 8, !tbaa !36
  %7 = zext nneg i32 %1 to i64
  %8 = getelementptr inbounds nuw %union.IRIns, ptr %6, i64 %7
  %9 = getelementptr inbounds nuw i8, ptr %8, i64 5
  %10 = load i8, ptr %9, align 1, !tbaa !32
  switch i8 %10, label %.thread [
    i8 53, label %16
    i8 54, label %16
    i8 55, label %11
  ]

11:                                               ; preds = %3
  %12 = getelementptr inbounds nuw i8, ptr %0, i64 24
  %13 = load i32, ptr %12, align 8, !tbaa !34
  %14 = and i32 %13, 61440
  %15 = icmp eq i32 %14, 4096
  br i1 %15, label %16, label %.thread

16:                                               ; preds = %3, %3, %11
  %17 = trunc nuw i32 %1 to i16
  %18 = getelementptr inbounds nuw i8, ptr %4, i64 2852
  br label %19

19:                                               ; preds = %28, %16
  %.01319.i = phi i64 [ 0, %16 ], [ %29, %28 ]
  %20 = getelementptr inbounds nuw [16 x %struct.BPropEntry], ptr %18, i64 0, i64 %.01319.i
  %21 = load i16, ptr %20, align 4, !tbaa !38
  %22 = icmp eq i16 %21, %17
  br i1 %22, label %23, label %28

23:                                               ; preds = %19
  %24 = getelementptr inbounds nuw i8, ptr %20, i64 4
  %25 = load i32, ptr %24, align 4, !tbaa !41
  %26 = and i32 %25, 4095
  %27 = icmp eq i32 %26, 0
  br i1 %27, label %narrow_bpc_get.exit, label %28

28:                                               ; preds = %23, %19
  %29 = add nuw nsw i64 %.01319.i, 1
  %exitcond.not.i = icmp eq i64 %29, 16
  br i1 %exitcond.not.i, label %33, label %19, !llvm.loop !45

narrow_bpc_get.exit:                              ; preds = %23
  %30 = getelementptr inbounds nuw i8, ptr %20, i64 2
  %31 = load i16, ptr %30, align 2, !tbaa !40
  %32 = zext i16 %31 to i32
  br label %.thread

33:                                               ; preds = %28
  %34 = add nsw i32 %2, 1
  %35 = icmp slt i32 %2, 99
  br i1 %35, label %36, label %.thread

36:                                               ; preds = %33
  %37 = getelementptr inbounds nuw i8, ptr %0, i64 8
  %38 = load ptr, ptr %37, align 8, !tbaa !30
  %39 = getelementptr inbounds nuw i8, ptr %0, i64 16
  %40 = load ptr, ptr %39, align 8, !tbaa !31
  %41 = icmp ult ptr %38, %40
  br i1 %41, label %42, label %.thread

42:                                               ; preds = %36
  %43 = load i16, ptr %8, align 8, !tbaa !32
  %44 = zext i16 %43 to i32
  tail call fastcc void @narrow_stripov_backprop(ptr noundef %0, i32 noundef %44, i32 noundef %34)
  %45 = load ptr, ptr %37, align 8, !tbaa !30
  %46 = load ptr, ptr %39, align 8, !tbaa !31
  %47 = icmp ult ptr %45, %46
  br i1 %47, label %48, label %55

48:                                               ; preds = %42
  %49 = getelementptr inbounds nuw i8, ptr %8, i64 2
  %50 = load i16, ptr %49, align 2, !tbaa !32
  %51 = zext i16 %50 to i32
  tail call fastcc void @narrow_stripov_backprop(ptr noundef %0, i32 noundef %51, i32 noundef %34)
  %52 = load ptr, ptr %37, align 8, !tbaa !30
  %53 = load ptr, ptr %39, align 8, !tbaa !31
  %54 = icmp ult ptr %52, %53
  br i1 %54, label %56, label %55

55:                                               ; preds = %48, %42
  store ptr %38, ptr %37, align 8, !tbaa !30
  br label %.thread

56:                                               ; preds = %48
  %57 = load i8, ptr %9, align 1, !tbaa !32
  %58 = zext i8 %57 to i32
  %59 = shl nuw i32 %58, 24
  %60 = add i32 %59, -200081408
  %61 = or disjoint i32 %60, %1
  %62 = getelementptr inbounds nuw i8, ptr %52, i64 4
  store ptr %62, ptr %37, align 8, !tbaa !30
  store i32 %61, ptr %52, align 4, !tbaa !35
  br label %66

.thread:                                          ; preds = %narrow_bpc_get.exit, %36, %33, %55, %3, %11
  %.034 = phi i32 [ %1, %11 ], [ %1, %3 ], [ %1, %33 ], [ %1, %36 ], [ %1, %55 ], [ %32, %narrow_bpc_get.exit ]
  %63 = getelementptr inbounds nuw i8, ptr %0, i64 8
  %64 = load ptr, ptr %63, align 8, !tbaa !30
  %65 = getelementptr inbounds nuw i8, ptr %64, i64 4
  store ptr %65, ptr %63, align 8, !tbaa !30
  store i32 %.034, ptr %64, align 4, !tbaa !35
  br label %66

66:                                               ; preds = %56, %.thread
  ret void
}